target datalayout = "e-m:e-p270:32:32-p271:32:32-p272:64:64-i64:64-i128:128-f80:128-n8:16:32:64-S128"
target triple = "x86_64-pc-linux-gnu"

%struct.Clu_Man_t_ = type { i32, i32, i32, i32, i32, i32, i32, i32, i32, i32, i32, i32, i32, i32, i32, ptr, ptr, ptr, ptr, i32, i32, i32, ptr, ptr, ptr, i32, i32, i32, i32, ptr, ptr, ptr, i32, i32 }
%struct.Cnf_Dat_t_ = type { ptr, i32, i32, i32, ptr, ptr, ptr, ptr, ptr, ptr }
%struct.Vec_Ptr_t_ = type { i32, i32, ptr }

; Function Attrs: inlinehint nounwind uwtable
define internal i32 @Abc_InfoMask(i32 noundef %0) #2 {
  %2 = alloca i32, align 4
  store i32 %0, ptr %2, align 4, !tbaa !21
  %3 = load i32, ptr %2, align 4, !tbaa !21
  %4 = sub nsw i32 32, %3
  %5 = lshr i32 -1, %4
  ret i32 %5
}

; Function Attrs: inlinehint nounwind uwtable
define internal i32 @lit_sign(i32 noundef %0) #2 {
  %2 = alloca i32, align 4
  store i32 %0, ptr %2, align 4, !tbaa !21
  %3 = load i32, ptr %2, align 4, !tbaa !21
  %4 = and i32 %3, 1
  ret i32 %4
}

; Function Attrs: inlinehint nounwind uwtable
define internal ptr @Vec_PtrEntry(ptr noundef %0, i32 noundef %1) #2 {
  %3 = alloca ptr, align 8
  %4 = alloca i32, align 4
  store ptr %0, ptr %3, align 8, !tbaa !109
  store i32 %1, ptr %4, align 4, !tbaa !21
  %5 = load ptr, ptr %3, align 8, !tbaa !109
  %6 = getelementptr inbounds nuw %struct.Vec_Ptr_t_, ptr %5, i32 0, i32 2
  %7 = load ptr, ptr %6, align 8, !tbaa !112
  %8 = load i32, ptr %4, align 4, !tbaa !21
  %9 = sext i32 %8 to i64
  %10 = getelementptr inbounds ptr, ptr %7, i64 %9
  %11 = load ptr, ptr %10, align 8, !tbaa !113
  ret ptr %11
}

; Function Attrs: inlinehint nounwind uwtable
define internal i32 @lit_var(i32 noundef %0) #2 {
  %2 = alloca i32, align 4
  store i32 %0, ptr %2, align 4, !tbaa !21
  %3 = load i32, ptr %2, align 4, !tbaa !21
  %4 = ashr i32 %3, 1
  ret i32 %4
}

; Function Attrs: nounwind uwtable
define i32 @Fra_ClausSimInfoCheck(ptr noundef %0, ptr noundef %1, i32 noundef %2) #0 {
  %4 = alloca i32, align 4
  %5 = alloca ptr, align 8
  %6 = alloca ptr, align 8
  %7 = alloca i32, align 4
  %8 = alloca [16 x ptr], align 16
  %9 = alloca i32, align 4
  %10 = alloca i32, align 4
  %11 = alloca i32, align 4
  %12 = alloca i32, align 4
  %13 = alloca i32, align 4
  %14 = alloca i32, align 4
  store ptr %0, ptr %5, align 8, !tbaa !3
  store ptr %1, ptr %6, align 8, !tbaa !42
  store i32 %2, ptr %7, align 4, !tbaa !21
  call void @llvm.lifetime.start.p0(i64 128, ptr %8) #11
  call void @llvm.lifetime.start.p0(i64 4, ptr %9) #11
  call void @llvm.lifetime.start.p0(i64 4, ptr %10) #11
  call void @llvm.lifetime.start.p0(i64 4, ptr %11) #11
  call void @llvm.lifetime.start.p0(i64 4, ptr %12) #11
  call void @llvm.lifetime.start.p0(i64 4, ptr %13) #11
  store i32 0, ptr %12, align 4, !tbaa !21
  br label %15

15:                                               ; preds = %44, %3
  %16 = load i32, ptr %12, align 4, !tbaa !21
  %17 = load i32, ptr %7, align 4, !tbaa !21
  %18 = icmp slt i32 %16, %17
  br i1 %18, label %19, label %47

19:                                               ; preds = %15
  %20 = load ptr, ptr %6, align 8, !tbaa !42
  %21 = load i32, ptr %12, align 4, !tbaa !21
  %22 = sext i32 %21 to i64
  %23 = getelementptr inbounds i32, ptr %20, i64 %22
  %24 = load i32, ptr %23, align 4, !tbaa !21
  %25 = call i32 @lit_var(i32 noundef %24)
  %26 = load ptr, ptr %5, align 8, !tbaa !3
  %27 = getelementptr inbounds nuw %struct.Clu_Man_t_, ptr %26, i32 0, i32 0
  %28 = load i32, ptr %27, align 8, !tbaa !26
  %29 = load ptr, ptr %5, align 8, !tbaa !3
  %30 = getelementptr inbounds nuw %struct.Clu_Man_t_, ptr %29, i32 0, i32 18
  %31 = load ptr, ptr %30, align 8, !tbaa !8
  %32 = getelementptr inbounds nuw %struct.Cnf_Dat_t_, ptr %31, i32 0, i32 1
  %33 = load i32, ptr %32, align 8, !tbaa !16
  %34 = mul nsw i32 %28, %33
  %35 = sub nsw i32 %25, %34
  store i32 %35, ptr %11, align 4, !tbaa !21
  %36 = load ptr, ptr %5, align 8, !tbaa !3
  %37 = getelementptr inbounds nuw %struct.Clu_Man_t_, ptr %36, i32 0, i32 31
  %38 = load ptr, ptr %37, align 8, !tbaa !168
  %39 = load i32, ptr %11, align 4, !tbaa !21
  %40 = call ptr @Vec_PtrEntry(ptr noundef %38, i32 noundef %39)
  %41 = load i32, ptr %12, align 4, !tbaa !21
  %42 = sext i32 %41 to i64
  %43 = getelementptr inbounds [16 x ptr], ptr %8, i64 0, i64 %42
  store ptr %40, ptr %43, align 8, !tbaa !42
  br label %44

44:                                               ; preds = %19
  %45 = load i32, ptr %12, align 4, !tbaa !21
  %46 = add nsw i32 %45, 1
  store i32 %46, ptr %12, align 4, !tbaa !21
  br label %15, !llvm.loop !174

47:                                               ; preds = %15
  %48 = load ptr, ptr %5, align 8, !tbaa !3
  %49 = getelementptr inbounds nuw %struct.Clu_Man_t_, ptr %48, i32 0, i32 32
  %50 = load i32, ptr %49, align 8, !tbaa !170
  %51 = sdiv i32 %50, 32
  store i32 %51, ptr %10, align 4, !tbaa !21
  store i32 0, ptr %13, align 4, !tbaa !21
  br label %52

52:                                               ; preds = %100, %47
  %53 = load i32, ptr %13, align 4, !tbaa !21
  %54 = load i32, ptr %10, align 4, !tbaa !21
  %55 = icmp slt i32 %53, %54
  br i1 %55, label %56, label %103

56:                                               ; preds = %52
  store i32 -1, ptr %9, align 4, !tbaa !21
  store i32 0, ptr %12, align 4, !tbaa !21
  br label %57

57:                                               ; preds = %92, %56
  %58 = load i32, ptr %12, align 4, !tbaa !21
  %59 = load i32, ptr %7, align 4, !tbaa !21
  %60 = icmp slt i32 %58, %59
  br i1 %60, label %61, label %95

61:                                               ; preds = %57
  %62 = load ptr, ptr %6, align 8, !tbaa !42
  %63 = load i32, ptr %12, align 4, !tbaa !21
  %64 = sext i32 %63 to i64
  %65 = getelementptr inbounds i32, ptr %62, i64 %64
  %66 = load i32, ptr %65, align 4, !tbaa !21
  %67 = call i32 @lit_sign(i32 noundef %66)
  %68 = icmp ne i32 %67, 0
  br i1 %68, label %69, label %78

69:                                               ; preds = %61
  %70 = load i32, ptr %12, align 4, !tbaa !21
  %71 = sext i32 %70 to i64
  %72 = getelementptr inbounds [16 x ptr], ptr %8, i64 0, i64 %71
  %73 = load ptr, ptr %72, align 8, !tbaa !42
  %74 = load i32, ptr %13, align 4, !tbaa !21
  %75 = sext i32 %74 to i64
  %76 = getelementptr inbounds i32, ptr %73, i64 %75
  %77 = load i32, ptr %76, align 4, !tbaa !21
  br label %88

78:                                               ; preds = %61
  %79 = load i32, ptr %12, align 4, !tbaa !21
  %80 = sext i32 %79 to i64
  %81 = getelementptr inbounds [16 x ptr], ptr %8, i64 0, i64 %80
  %82 = load ptr, ptr %81, align 8, !tbaa !42
  %83 = load i32, ptr %13, align 4, !tbaa !21
  %84 = sext i32 %83 to i64
  %85 = getelementptr inbounds i32, ptr %82, i64 %84
  %86 = load i32, ptr %85, align 4, !tbaa !21
  %87 = xor i32 %86, -1
  br label %88

88:                                               ; preds = %78, %69
  %89 = phi i32 [ %77, %69 ], [ %87, %78 ]
  %90 = load i32, ptr %9, align 4, !tbaa !21
  %91 = and i32 %90, %89
  store i32 %91, ptr %9, align 4, !tbaa !21
  br label %92

92:                                               ; preds = %88
  %93 = load i32, ptr %12, align 4, !tbaa !21
  %94 = add nsw i32 %93, 1
  store i32 %94, ptr %12, align 4, !tbaa !21
  br label %57, !llvm.loop !175

95:                                               ; preds = %57
  %96 = load i32, ptr %9, align 4, !tbaa !21
  %97 = icmp ne i32 %96, 0
  br i1 %97, label %98, label %99

98:                                               ; preds = %95
  store i32 1, ptr %4, align 4
  store i32 1, ptr %14, align 4
  br label %160

99:                                               ; preds = %95
  br label %100

100:                                              ; preds = %99
  %101 = load i32, ptr %13, align 4, !tbaa !21
  %102 = add nsw i32 %101, 1
  store i32 %102, ptr %13, align 4, !tbaa !21
  br label %52, !llvm.loop !176

103:                                              ; preds = %52
  %104 = load ptr, ptr %5, align 8, !tbaa !3
  %105 = getelementptr inbounds nuw %struct.Clu_Man_t_, ptr %104, i32 0, i32 32
  %106 = load i32, ptr %105, align 8, !tbaa !170
  %107 = srem i32 %106, 32
  %108 = icmp ne i32 %107, 0
  br i1 %108, label %109, label %159

109:                                              ; preds = %103
  store i32 -1, ptr %9, align 4, !tbaa !21
  store i32 0, ptr %12, align 4, !tbaa !21
  br label %110

110:                                              ; preds = %145, %109
  %111 = load i32, ptr %12, align 4, !tbaa !21
  %112 = load i32, ptr %7, align 4, !tbaa !21
  %113 = icmp slt i32 %111, %112
  br i1 %113, label %114, label %148

114:                                              ; preds = %110
  %115 = load ptr, ptr %6, align 8, !tbaa !42
  %116 = load i32, ptr %12, align 4, !tbaa !21
  %117 = sext i32 %116 to i64
  %118 = getelementptr inbounds i32, ptr %115, i64 %117
  %119 = load i32, ptr %118, align 4, !tbaa !21
  %120 = call i32 @lit_sign(i32 noundef %119)
  %121 = icmp ne i32 %120, 0
  br i1 %121, label %122, label %131

122:                                              ; preds = %114
  %123 = load i32, ptr %12, align 4, !tbaa !21
  %124 = sext i32 %123 to i64
  %125 = getelementptr inbounds [16 x ptr], ptr %8, i64 0, i64 %124
  %126 = load ptr, ptr %125, align 8, !tbaa !42
  %127 = load i32, ptr %13, align 4, !tbaa !21
  %128 = sext i32 %127 to i64
  %129 = getelementptr inbounds i32, ptr %126, i64 %128
  %130 = load i32, ptr %129, align 4, !tbaa !21
  br label %141

131:                                              ; preds = %114
  %132 = load i32, ptr %12, align 4, !tbaa !21
  %133 = sext i32 %132 to i64
  %134 = getelementptr inbounds [16 x ptr], ptr %8, i64 0, i64 %133
  %135 = load ptr, ptr %134, align 8, !tbaa !42
  %136 = load i32, ptr %13, align 4, !tbaa !21
  %137 = sext i32 %136 to i64
  %138 = getelementptr inbounds i32, ptr %135, i64 %137
  %139 = load i32, ptr %138, align 4, !tbaa !21
  %140 = xor i32 %139, -1
  br label %141

141:                                              ; preds = %131, %122
  %142 = phi i32 [ %130, %122 ], [ %140, %131 ]
  %143 = load i32, ptr %9, align 4, !tbaa !21
  %144 = and i32 %143, %142
  store i32 %144, ptr %9, align 4, !tbaa !21
  br label %145

145:                                              ; preds = %141
  %146 = load i32, ptr %12, align 4, !tbaa !21
  %147 = add nsw i32 %146, 1
  store i32 %147, ptr %12, align 4, !tbaa !21
  br label %110, !llvm.loop !177

148:                                              ; preds = %110
  %149 = load i32, ptr %9, align 4, !tbaa !21
  %150 = load ptr, ptr %5, align 8, !tbaa !3
  %151 = getelementptr inbounds nuw %struct.Clu_Man_t_, ptr %150, i32 0, i32 32
  %152 = load i32, ptr %151, align 8, !tbaa !170
  %153 = srem i32 %152, 32
  %154 = call i32 @Abc_InfoMask(i32 noundef %153)
  %155 = and i32 %149, %154
  %156 = icmp ne i32 %155, 0
  br i1 %156, label %157, label %158

157:                                              ; preds = %148
  store i32 1, ptr %4, align 4
  store i32 1, ptr %14, align 4
  br label %160

158:                                              ; preds = %148
  br label %159

159:                                              ; preds = %158, %103
  store i32 0, ptr %4, align 4
  store i32 1, ptr %14, align 4
  br label %160

160:                                              ; preds = %159, %157, %98
  call void @llvm.lifetime.end.p0(i64 4, ptr %13) #11
  call void @llvm.lifetime.end.p0(i64 4, ptr %12) #11
  call void @llvm.lifetime.end.p0(i64 4, ptr %11) #11
  call void @llvm.lifetime.end.p0(i64 4, ptr %10) #11
  call void @llvm.lifetime.end.p0(i64 4, ptr %9) #11
  call void @llvm.lifetime.end.p0(i64 128, ptr %8) #11
  %161 = load i32, ptr %4, align 4
  ret i32 %161
}