; Function Attrs: nofree norecurse nosync nounwind memory(read, inaccessiblemem: none) uwtable
define range(i32 0, 2) i32 @Fra_ClausSimInfoCheck(ptr noundef readonly captures(none) %0, ptr noundef readonly captures(none) %1, i32 noundef %2) local_unnamed_addr #12 {
  %4 = alloca [16 x ptr], align 16
  call void @llvm.lifetime.start.p0(i64 128, ptr nonnull %4) #23
  %5 = icmp sgt i32 %2, 0
  br i1 %5, label %.lr.ph, label %._crit_edge.thread

.lr.ph:                                           ; preds = %3
  %6 = load i32, ptr %0, align 8, !tbaa !20
  %7 = getelementptr inbounds nuw i8, ptr %0, i64 88
  %8 = load ptr, ptr %7, align 8, !tbaa !3
  %9 = getelementptr inbounds nuw i8, ptr %8, i64 8
  %10 = load i32, ptr %9, align 8, !tbaa !14
  %11 = mul nsw i32 %10, %6
  %12 = getelementptr inbounds nuw i8, ptr %0, i64 168
  %13 = load ptr, ptr %12, align 8, !tbaa !159
  %14 = getelementptr i8, ptr %13, i64 8
  %.val = load ptr, ptr %14, align 8, !tbaa !31
  %wide.trip.count = zext nneg i32 %2 to i64
  br label %15

15:                                               ; preds = %.lr.ph, %15
  %indvars.iv = phi i64 [ 0, %.lr.ph ], [ %indvars.iv.next, %15 ]
  %16 = getelementptr inbounds nuw i32, ptr %1, i64 %indvars.iv
  %17 = load i32, ptr %16, align 4, !tbaa !38
  %18 = ashr i32 %17, 1
  %19 = sub nsw i32 %18, %11
  %20 = sext i32 %19 to i64
  %21 = getelementptr inbounds ptr, ptr %.val, i64 %20
  %22 = load ptr, ptr %21, align 8, !tbaa !33
  %23 = getelementptr inbounds nuw [16 x ptr], ptr %4, i64 0, i64 %indvars.iv
  store ptr %22, ptr %23, align 8, !tbaa !48
  %indvars.iv.next = add nuw nsw i64 %indvars.iv, 1
  %exitcond.not = icmp eq i64 %indvars.iv.next, %wide.trip.count
  br i1 %exitcond.not, label %._crit_edge, label %15, !llvm.loop !166

._crit_edge:                                      ; preds = %15
  %24 = getelementptr inbounds nuw i8, ptr %0, i64 176
  %25 = load i32, ptr %24, align 8, !tbaa !162
  %26 = lshr i32 %25, 5
  %27 = icmp sgt i32 %25, 31
  br i1 %27, label %.preheader47.us.preheader, label %._crit_edge55

._crit_edge.thread:                               ; preds = %3
  %28 = getelementptr inbounds nuw i8, ptr %0, i64 176
  %29 = load i32, ptr %28, align 8, !tbaa !162
  %30 = icmp sgt i32 %29, 31
  br i1 %30, label %.loopexit, label %._crit_edge55.thread

.preheader47.us.preheader:                        ; preds = %._crit_edge
  %wide.trip.count72 = zext nneg i32 %26 to i64
  %wide.trip.count67 = zext nneg i32 %2 to i64
  br label %.preheader47.us

.preheader47.us:                                  ; preds = %.preheader47.us.preheader, %31
  %indvars.iv69 = phi i64 [ 0, %.preheader47.us.preheader ], [ %indvars.iv.next70, %31 ]
  br label %32

31:                                               ; preds = %._crit_edge53.us
  %indvars.iv.next70 = add nuw nsw i64 %indvars.iv69, 1
  %exitcond73.not = icmp eq i64 %indvars.iv.next70, %wide.trip.count72
  br i1 %exitcond73.not, label %._crit_edge55.loopexit, label %.preheader47.us, !llvm.loop !167

32:                                               ; preds = %.preheader47.us, %32
  %indvars.iv64 = phi i64 [ 0, %.preheader47.us ], [ %indvars.iv.next65, %32 ]
  %.04050.us = phi i32 [ -1, %.preheader47.us ], [ %41, %32 ]
  %33 = getelementptr inbounds nuw i32, ptr %1, i64 %indvars.iv64
  %34 = load i32, ptr %33, align 4, !tbaa !38
  %35 = and i32 %34, 1
  %36 = getelementptr inbounds nuw [16 x ptr], ptr %4, i64 0, i64 %indvars.iv64
  %37 = load ptr, ptr %36, align 8, !tbaa !48
  %38 = getelementptr inbounds nuw i32, ptr %37, i64 %indvars.iv69
  %39 = load i32, ptr %38, align 4, !tbaa !38
  %sext = add nsw i32 %35, -1
  %40 = xor i32 %39, %sext
  %41 = and i32 %40, %.04050.us
  %indvars.iv.next65 = add nuw nsw i64 %indvars.iv64, 1
  %exitcond68.not = icmp eq i64 %indvars.iv.next65, %wide.trip.count67
  br i1 %exitcond68.not, label %._crit_edge53.us, label %32, !llvm.loop !168

._crit_edge53.us:                                 ; preds = %32
  %.not45.us = icmp eq i32 %41, 0
  br i1 %.not45.us, label %31, label %.loopexit

._crit_edge55.loopexit:                           ; preds = %31
  %42 = zext nneg i32 %26 to i64
  br label %._crit_edge55

._crit_edge55:                                    ; preds = %._crit_edge55.loopexit, %._crit_edge
  %.0.lcssa = phi i64 [ 0, %._crit_edge ], [ %42, %._crit_edge55.loopexit ]
  %43 = and i32 %25, 31
  %.not = icmp eq i32 %43, 0
  br i1 %.not, label %60, label %.lr.ph59

._crit_edge55.thread:                             ; preds = %._crit_edge.thread
  %44 = and i32 %29, 31
  %.not80 = icmp eq i32 %44, 0
  br i1 %.not80, label %60, label %._crit_edge60

.lr.ph59:                                         ; preds = %._crit_edge55
  %wide.trip.count77 = zext nneg i32 %2 to i64
  br label %45

45:                                               ; preds = %.lr.ph59, %45
  %indvars.iv74 = phi i64 [ 0, %.lr.ph59 ], [ %indvars.iv.next75, %45 ]
  %.14157 = phi i32 [ -1, %.lr.ph59 ], [ %54, %45 ]
  %46 = getelementptr inbounds nuw i32, ptr %1, i64 %indvars.iv74
  %47 = load i32, ptr %46, align 4, !tbaa !38
  %48 = and i32 %47, 1
  %49 = getelementptr inbounds nuw [16 x ptr], ptr %4, i64 0, i64 %indvars.iv74
  %50 = load ptr, ptr %49, align 8, !tbaa !48
  %51 = getelementptr inbounds nuw i32, ptr %50, i64 %.0.lcssa
  %52 = load i32, ptr %51, align 4, !tbaa !38
  %sext84 = add nsw i32 %48, -1
  %53 = xor i32 %52, %sext84
  %54 = and i32 %53, %.14157
  %indvars.iv.next75 = add nuw nsw i64 %indvars.iv74, 1
  %exitcond78.not = icmp eq i64 %indvars.iv.next75, %wide.trip.count77
  br i1 %exitcond78.not, label %._crit_edge60, label %45, !llvm.loop !169

._crit_edge60:                                    ; preds = %45, %._crit_edge55.thread
  %55 = phi i32 [ %29, %._crit_edge55.thread ], [ %25, %45 ]
  %.141.lcssa = phi i32 [ -1, %._crit_edge55.thread ], [ %54, %45 ]
  %56 = srem i32 %55, 32
  %57 = sub nsw i32 32, %56
  %58 = lshr i32 -1, %57
  %59 = and i32 %.141.lcssa, %58
  %.not43 = icmp eq i32 %59, 0
  br i1 %.not43, label %60, label %.loopexit

60:                                               ; preds = %._crit_edge55.thread, %._crit_edge60, %._crit_edge55
  br label %.loopexit

.loopexit:                                        ; preds = %._crit_edge53.us, %._crit_edge.thread, %._crit_edge60, %60
  %.039 = phi i32 [ 0, %60 ], [ 1, %._crit_edge60 ], [ 1, %._crit_edge.thread ], [ 1, %._crit_edge53.us ]
  call void @llvm.lifetime.end.p0(i64 128, ptr nonnull %4) #23
  ret i32 %.039
}